target datalayout = "e-m:e-p270:32:32-p271:32:32-p272:64:64-i64:64-i128:128-f80:128-n8:16:32:64-S128"
target triple = "x86_64-unknown-linux-gnu"

%struct.serial_struct = type { i32, i32, i32, i32, i32, i32, i32, i32, i16, i8, [1 x i8], i32, i16, i16, ptr, i16, i32, i64 }

@.str.54 = private unnamed_addr constant [4 x i8] c"%d\0A\00", align 1

; Function Attrs: fn_ret_thunk_extern nounwind null_pointer_is_valid
define internal fastcc noundef i32 @uart_get_info(ptr noundef %0, ptr nocapture noundef writeonly %1) unnamed_addr #0 align 16 {
  tail call void @llvm.memset.p0.i64(ptr noundef align 8 dereferenceable(72) %1, i8 0, i64 72, i1 false)
  %3 = getelementptr inbounds i8, ptr %0, i64 256
  tail call void @mutex_lock(ptr noundef %3) #19
  %4 = getelementptr inbounds i8, ptr %0, i64 432
  %5 = load ptr, ptr %4, align 8
  %6 = icmp eq ptr %5, null
  br i1 %6, label %71, label %7

7:                                                ; preds = %2
  %8 = getelementptr inbounds i8, ptr %5, i64 296
  %9 = load i32, ptr %8, align 8
  store i32 %9, ptr %1, align 8
  %10 = getelementptr inbounds i8, ptr %5, i64 316
  %11 = load i32, ptr %10, align 4
  %12 = getelementptr inbounds i8, ptr %1, i64 4
  store i32 %11, ptr %12, align 4
  %13 = getelementptr inbounds i8, ptr %5, i64 8
  %14 = load i64, ptr %13, align 8
  %15 = trunc i64 %14 to i32
  %16 = getelementptr inbounds i8, ptr %1, i64 8
  store i32 %15, ptr %16, align 8
  %17 = load i64, ptr %13, align 8
  %18 = lshr i64 %17, 32
  %19 = trunc i64 %18 to i32
  %20 = getelementptr inbounds i8, ptr %1, i64 60
  store i32 %19, ptr %20, align 4
  %21 = getelementptr inbounds i8, ptr %5, i64 168
  %22 = load i32, ptr %21, align 8
  %23 = getelementptr inbounds i8, ptr %1, i64 12
  store i32 %22, ptr %23, align 4
  %24 = getelementptr inbounds i8, ptr %5, i64 272
  %25 = load i64, ptr %24, align 8
  %26 = trunc i64 %25 to i32
  %27 = getelementptr inbounds i8, ptr %1, i64 16
  store i32 %26, ptr %27, align 8
  %28 = getelementptr inbounds i8, ptr %5, i64 188
  %29 = load i32, ptr %28, align 4
  %30 = getelementptr inbounds i8, ptr %1, i64 20
  store i32 %29, ptr %30, align 4
  %31 = getelementptr inbounds i8, ptr %5, i64 184
  %32 = load i32, ptr %31, align 8
  %33 = lshr i32 %32, 4
  %34 = getelementptr inbounds i8, ptr %1, i64 28
  store i32 %33, ptr %34, align 4
  %35 = getelementptr inbounds i8, ptr %0, i64 352
  %36 = load i32, ptr %35, align 8
  %37 = zext i32 %36 to i64
  %38 = tail call i32 @jiffies_to_msecs(i64 noundef %37) #19
  %39 = udiv i32 %38, 10
  %40 = trunc i32 %39 to i16
  %41 = getelementptr inbounds i8, ptr %1, i64 32
  store i16 %40, ptr %41, align 8
  %42 = getelementptr inbounds i8, ptr %0, i64 356
  %43 = load i32, ptr %42, align 4
  %44 = icmp eq i32 %43, 65535
  br i1 %44, label %50, label %45

45:                                               ; preds = %7
  %46 = zext i32 %43 to i64
  %47 = tail call i32 @jiffies_to_msecs(i64 noundef %46) #19
  %48 = udiv i32 %47, 10
  %49 = trunc i32 %48 to i16
  br label %50

50:                                               ; preds = %45, %7
  %51 = phi i16 [ %49, %45 ], [ -1, %7 ]
  %52 = getelementptr inbounds i8, ptr %1, i64 40
  store i16 %51, ptr %52, align 8
  %53 = getelementptr inbounds i8, ptr %5, i64 312
  %54 = load i32, ptr %53, align 8
  %55 = getelementptr inbounds i8, ptr %1, i64 24
  store i32 %54, ptr %55, align 8
  %56 = getelementptr inbounds i8, ptr %5, i64 371
  %57 = load i8, ptr %56, align 1
  %58 = zext i8 %57 to i32
  %59 = getelementptr inbounds i8, ptr %1, i64 36
  store i32 %58, ptr %59, align 4
  %60 = getelementptr inbounds i8, ptr %5, i64 194
  %61 = load i8, ptr %60, align 2
  %62 = getelementptr inbounds i8, ptr %1, i64 34
  store i8 %61, ptr %62, align 2
  %63 = getelementptr inbounds i8, ptr %5, i64 193
  %64 = load i8, ptr %63, align 1
  %65 = zext i8 %64 to i16
  %66 = getelementptr inbounds i8, ptr %1, i64 56
  store i16 %65, ptr %66, align 8
  %67 = getelementptr inbounds i8, ptr %5, i64 328
  %68 = load i64, ptr %67, align 8
  %69 = inttoptr i64 %68 to ptr
  %70 = getelementptr inbounds i8, ptr %1, i64 48
  store ptr %69, ptr %70, align 8
  br label %71

71:                                               ; preds = %50, %2
  %72 = phi i32 [ 0, %50 ], [ -19, %2 ]
  tail call void @mutex_unlock(ptr noundef %3) #19
  ret i32 %72
}

; Function Attrs: fn_ret_thunk_extern nounwind null_pointer_is_valid
define internal noundef i64 @irq_show(ptr nocapture noundef readonly %0, ptr nocapture readnone %1, ptr nocapture noundef writeonly %2) #0 align 16 {
  %4 = alloca %struct.serial_struct, align 8
  call void @llvm.lifetime.start.p0(i64 72, ptr nonnull %4) #19
  call void @llvm.memset.p0.i64(ptr noundef nonnull align 8 dereferenceable(72) %4, i8 0, i64 72, i1 false), !annotation !15
  %5 = getelementptr inbounds i8, ptr %0, i64 120
  %6 = load ptr, ptr %5, align 8
  %7 = call fastcc i32 @uart_get_info(ptr noundef %6, ptr noundef nonnull %4), !range !56
  %8 = getelementptr inbounds i8, ptr %4, i64 12
  %9 = load i32, ptr %8, align 4
  %10 = tail call i32 (ptr, ptr, ...) @sprintf(ptr noundef %2, ptr noundef nonnull dereferenceable(1) @.str.54, i32 noundef %9) #19
  %11 = sext i32 %10 to i64
  call void @llvm.lifetime.end.p0(i64 72, ptr nonnull %4) #19
  ret i64 %11
}